; Function Attrs: mustprogress uwtable
define noundef ptr @_ZN3gmx13TextInputFile6handleEv(ptr noundef nonnull readonly align 8 captures(none) dereferenceable(16) %0) local_unnamed_addr #2 align 2 {
  %2 = getelementptr inbounds nuw i8, ptr %0, i64 8
  %3 = load ptr, ptr %2, align 8, !tbaa !9
  %4 = load ptr, ptr %3, align 8, !tbaa !11
  %.not.i = icmp eq ptr %4, null
  br i1 %.not.i, label %5, label %_ZN3gmx8internal14FileStreamImpl6handleEv.exit

5:                                                ; preds = %1
  tail call void @_ZN3gmx8internal13assertHandlerEPKcS2_S2_S2_i(ptr noundef nonnull @.str.8, ptr noundef nonnull @.str.9, ptr noundef nonnull @__PRETTY_FUNCTION__._ZZN3gmx8internal14FileStreamImpl6handleEvENKUlvE_clEv, ptr noundef nonnull @.str.2, i32 noundef 135) #23
  unreachable

_ZN3gmx8internal14FileStreamImpl6handleEv.exit:   ; preds = %1
  ret ptr %4
}